target datalayout = "e-m:e-p270:32:32-p271:32:32-p272:64:64-i64:64-i128:128-f80:128-n8:16:32:64-S128"
target triple = "x86_64-pc-linux-gnu"

%struct.exr_attr_box2i_t = type { %struct.exr_attr_v2i_t, %struct.exr_attr_v2i_t }
%struct.exr_attr_v2i_t = type { i32, i32 }
%struct._priv_exr_part_t = type { i32, i32, %struct.exr_attribute_list, ptr, ptr, ptr, ptr, ptr, ptr, ptr, ptr, ptr, ptr, ptr, ptr, ptr, ptr, %struct.exr_attr_box2i_t, %struct.exr_attr_box2i_t, i32, i32, i32, float, i32, i32, ptr, ptr, ptr, ptr, i64, i16, i16, i32, i64, i64 }
%struct.exr_attribute_list = type { i32, i32, ptr, ptr }
%struct._priv_exr_context_t = type { i8, i8, i8, i8, i8, i8, i8, i8, %struct.exr_attr_string_t, %struct.exr_attr_string_t, ptr, ptr, ptr, ptr, ptr, ptr, ptr, ptr, i32, i32, i32, i32, i32, float, ptr, ptr, ptr, i64, ptr, ptr, i64, i32, i32, i32, i32, %struct._priv_exr_part_t, ptr, ptr, %struct.exr_attribute_list, %union.pthread_mutex_t, i8, i8, [2 x i8], i32 }
%struct.exr_attr_string_t = type { i32, i32, ptr }
%union.pthread_mutex_t = type { %struct.__pthread_mutex_s }
%struct.__pthread_mutex_s = type { i32, i32, i32, i32, i32, i16, i16, %struct.__pthread_internal_list }
%struct.__pthread_internal_list = type { ptr, ptr }
%struct._internal_exr_seq_scratch = type { ptr, i64, i64, i64, ptr, ptr, ptr }
%struct.exr_attr_preview_t = type { i32, i32, i64, ptr }

@.str.93 = private unnamed_addr constant [53 x i8] c"Attribute '%s': Invalid size %d (exp '%s' size >= 8)\00", align 1
@.str.94 = private unnamed_addr constant [45 x i8] c"Attribute '%s': Unable to read preview sizes\00", align 1
@.str.95 = private unnamed_addr constant [66 x i8] c"Attribute '%s': Invalid size %d (exp '%s' %u x %u * 4 + sizevals)\00", align 1
@.str.96 = private unnamed_addr constant [60 x i8] c"Attribute '%s', type '%s': Invalid size for preview %u x %u\00", align 1
@.str.97 = private unnamed_addr constant [55 x i8] c"Attribute '%s': Unable to read preview data (%d bytes)\00", align 1

; Function Attrs: inlinehint nounwind uwtable
define internal i32 @__uint32_identity(i32 noundef %0) #4 {
  %2 = alloca i32, align 4
  store i32 %0, ptr %2, align 4, !tbaa !10
  %3 = load i32, ptr %2, align 4, !tbaa !10
  ret i32 %3
}

; Function Attrs: inlinehint nounwind uwtable
define internal i32 @one_to_native32(i32 noundef %0) #4 {
  %2 = alloca i32, align 4
  store i32 %0, ptr %2, align 4, !tbaa !10
  %3 = load i32, ptr %2, align 4, !tbaa !10
  %4 = call i32 @__uint32_identity(i32 noundef %3)
  ret i32 %4
}

; Function Attrs: nounwind uwtable
define internal i32 @extract_attr_preview(ptr noundef %0, ptr noundef %1, ptr noundef %2, ptr noundef %3, ptr noundef %4, i32 noundef %5) #0 {
  %7 = alloca i32, align 4
  %8 = alloca ptr, align 8
  %9 = alloca ptr, align 8
  %10 = alloca ptr, align 8
  %11 = alloca ptr, align 8
  %12 = alloca ptr, align 8
  %13 = alloca i32, align 4
  %14 = alloca i64, align 8
  %15 = alloca [2 x i32], align 4
  %16 = alloca i32, align 4
  %17 = alloca i64, align 8
  %18 = alloca i32, align 4
  store ptr %0, ptr %8, align 8, !tbaa !3
  store ptr %1, ptr %9, align 8, !tbaa !95
  store ptr %2, ptr %10, align 8, !tbaa !34
  store ptr %3, ptr %11, align 8, !tbaa !93
  store ptr %4, ptr %12, align 8, !tbaa !93
  store i32 %5, ptr %13, align 4, !tbaa !10
  call void @llvm.lifetime.start.p0(i64 8, ptr %14) #7
  call void @llvm.lifetime.start.p0(i64 8, ptr %15) #7
  call void @llvm.lifetime.start.p0(i64 4, ptr %16) #7
  call void @llvm.lifetime.start.p0(i64 8, ptr %17) #7
  %19 = load ptr, ptr %8, align 8, !tbaa !3
  %20 = getelementptr inbounds nuw %struct._priv_exr_context_t, ptr %19, i32 0, i32 27
  %21 = load i64, ptr %20, align 8, !tbaa !107
  store i64 %21, ptr %17, align 8, !tbaa !38
  %22 = load ptr, ptr %8, align 8, !tbaa !3
  %23 = load ptr, ptr %10, align 8, !tbaa !34
  %24 = call i32 @exr_attr_preview_destroy(ptr noundef %22, ptr noundef %23)
  %25 = load i32, ptr %13, align 4, !tbaa !10
  %26 = icmp slt i32 %25, 8
  br i1 %26, label %27, label %36

27:                                               ; preds = %6
  %28 = load ptr, ptr %8, align 8, !tbaa !3
  %29 = getelementptr inbounds nuw %struct._priv_exr_context_t, ptr %28, i32 0, i32 14
  %30 = load ptr, ptr %29, align 8, !tbaa !48
  %31 = load ptr, ptr %8, align 8, !tbaa !3
  %32 = load ptr, ptr %11, align 8, !tbaa !93
  %33 = load i32, ptr %13, align 4, !tbaa !10
  %34 = load ptr, ptr %12, align 8, !tbaa !93
  %35 = call i32 (ptr, i32, ptr, ...) %30(ptr noundef %31, i32 noundef 17, ptr noundef @.str.93, ptr noundef %32, i32 noundef %33, ptr noundef %34)
  store i32 %35, ptr %7, align 4
  store i32 1, ptr %18, align 4
  br label %159

36:                                               ; preds = %6
  %37 = load ptr, ptr %9, align 8, !tbaa !95
  %38 = getelementptr inbounds nuw %struct._internal_exr_seq_scratch, ptr %37, i32 0, i32 4
  %39 = load ptr, ptr %38, align 8, !tbaa !88
  %40 = load ptr, ptr %9, align 8, !tbaa !95
  %41 = getelementptr inbounds [2 x i32], ptr %15, i64 0, i64 0
  %42 = call i32 %39(ptr noundef %40, ptr noundef %41, i64 noundef 8)
  store i32 %42, ptr %16, align 4, !tbaa !10
  %43 = load i32, ptr %16, align 4, !tbaa !10
  %44 = icmp ne i32 %43, 0
  br i1 %44, label %45, label %53

45:                                               ; preds = %36
  %46 = load ptr, ptr %8, align 8, !tbaa !3
  %47 = getelementptr inbounds nuw %struct._priv_exr_context_t, ptr %46, i32 0, i32 14
  %48 = load ptr, ptr %47, align 8, !tbaa !48
  %49 = load ptr, ptr %8, align 8, !tbaa !3
  %50 = load i32, ptr %16, align 4, !tbaa !10
  %51 = load ptr, ptr %11, align 8, !tbaa !93
  %52 = call i32 (ptr, i32, ptr, ...) %48(ptr noundef %49, i32 noundef %50, ptr noundef @.str.94, ptr noundef %51)
  store i32 %52, ptr %7, align 4
  store i32 1, ptr %18, align 4
  br label %159

53:                                               ; preds = %36
  %54 = getelementptr inbounds [2 x i32], ptr %15, i64 0, i64 0
  %55 = load i32, ptr %54, align 4, !tbaa !10
  %56 = call i32 @one_to_native32(i32 noundef %55)
  %57 = getelementptr inbounds [2 x i32], ptr %15, i64 0, i64 0
  store i32 %56, ptr %57, align 4, !tbaa !10
  %58 = getelementptr inbounds [2 x i32], ptr %15, i64 0, i64 1
  %59 = load i32, ptr %58, align 4, !tbaa !10
  %60 = call i32 @one_to_native32(i32 noundef %59)
  %61 = getelementptr inbounds [2 x i32], ptr %15, i64 0, i64 1
  store i32 %60, ptr %61, align 4, !tbaa !10
  %62 = getelementptr inbounds [2 x i32], ptr %15, i64 0, i64 0
  %63 = load i32, ptr %62, align 4, !tbaa !10
  %64 = mul i32 4, %63
  %65 = getelementptr inbounds [2 x i32], ptr %15, i64 0, i64 1
  %66 = load i32, ptr %65, align 4, !tbaa !10
  %67 = mul i32 %64, %66
  %68 = zext i32 %67 to i64
  store i64 %68, ptr %14, align 8, !tbaa !38
  %69 = load i32, ptr %13, align 4, !tbaa !10
  %70 = sext i32 %69 to i64
  %71 = load i64, ptr %14, align 8, !tbaa !38
  %72 = add i64 8, %71
  %73 = icmp ne i64 %70, %72
  br i1 %73, label %74, label %87

74:                                               ; preds = %53
  %75 = load ptr, ptr %8, align 8, !tbaa !3
  %76 = getelementptr inbounds nuw %struct._priv_exr_context_t, ptr %75, i32 0, i32 14
  %77 = load ptr, ptr %76, align 8, !tbaa !48
  %78 = load ptr, ptr %8, align 8, !tbaa !3
  %79 = load ptr, ptr %11, align 8, !tbaa !93
  %80 = load i32, ptr %13, align 4, !tbaa !10
  %81 = load ptr, ptr %12, align 8, !tbaa !93
  %82 = getelementptr inbounds [2 x i32], ptr %15, i64 0, i64 0
  %83 = load i32, ptr %82, align 4, !tbaa !10
  %84 = getelementptr inbounds [2 x i32], ptr %15, i64 0, i64 1
  %85 = load i32, ptr %84, align 4, !tbaa !10
  %86 = call i32 (ptr, i32, ptr, ...) %77(ptr noundef %78, i32 noundef 14, ptr noundef @.str.95, ptr noundef %79, i32 noundef %80, ptr noundef %81, i32 noundef %83, i32 noundef %85)
  store i32 %86, ptr %7, align 4
  store i32 1, ptr %18, align 4
  br label %159

87:                                               ; preds = %53
  %88 = load i64, ptr %14, align 8, !tbaa !38
  %89 = icmp eq i64 %88, 0
  br i1 %89, label %97, label %90

90:                                               ; preds = %87
  %91 = load i64, ptr %17, align 8, !tbaa !38
  %92 = icmp sgt i64 %91, 0
  br i1 %92, label %93, label %109

93:                                               ; preds = %90
  %94 = load i64, ptr %14, align 8, !tbaa !38
  %95 = load i64, ptr %17, align 8, !tbaa !38
  %96 = icmp uge i64 %94, %95
  br i1 %96, label %97, label %109

97:                                               ; preds = %93, %87
  %98 = load ptr, ptr %8, align 8, !tbaa !3
  %99 = getelementptr inbounds nuw %struct._priv_exr_context_t, ptr %98, i32 0, i32 14
  %100 = load ptr, ptr %99, align 8, !tbaa !48
  %101 = load ptr, ptr %8, align 8, !tbaa !3
  %102 = load ptr, ptr %11, align 8, !tbaa !93
  %103 = load ptr, ptr %12, align 8, !tbaa !93
  %104 = getelementptr inbounds [2 x i32], ptr %15, i64 0, i64 0
  %105 = load i32, ptr %104, align 4, !tbaa !10
  %106 = getelementptr inbounds [2 x i32], ptr %15, i64 0, i64 1
  %107 = load i32, ptr %106, align 4, !tbaa !10
  %108 = call i32 (ptr, i32, ptr, ...) %100(ptr noundef %101, i32 noundef 17, ptr noundef @.str.96, ptr noundef %102, ptr noundef %103, i32 noundef %105, i32 noundef %107)
  store i32 %108, ptr %7, align 4
  store i32 1, ptr %18, align 4
  br label %159

109:                                              ; preds = %93, %90
  %110 = load ptr, ptr %8, align 8, !tbaa !3
  %111 = load ptr, ptr %10, align 8, !tbaa !34
  %112 = getelementptr inbounds [2 x i32], ptr %15, i64 0, i64 0
  %113 = load i32, ptr %112, align 4, !tbaa !10
  %114 = getelementptr inbounds [2 x i32], ptr %15, i64 0, i64 1
  %115 = load i32, ptr %114, align 4, !tbaa !10
  %116 = call i32 @exr_attr_preview_init(ptr noundef %110, ptr noundef %111, i32 noundef %113, i32 noundef %115)
  store i32 %116, ptr %16, align 4, !tbaa !10
  %117 = load i32, ptr %16, align 4, !tbaa !10
  %118 = icmp ne i32 %117, 0
  br i1 %118, label %119, label %121

119:                                              ; preds = %109
  %120 = load i32, ptr %16, align 4, !tbaa !10
  store i32 %120, ptr %7, align 4
  store i32 1, ptr %18, align 4
  br label %159

121:                                              ; preds = %109
  %122 = load i64, ptr %14, align 8, !tbaa !38
  %123 = icmp ugt i64 %122, 0
  br i1 %123, label %124, label %157

124:                                              ; preds = %121
  %125 = load ptr, ptr %9, align 8, !tbaa !95
  %126 = getelementptr inbounds nuw %struct._internal_exr_seq_scratch, ptr %125, i32 0, i32 4
  %127 = load ptr, ptr %126, align 8, !tbaa !88
  %128 = load ptr, ptr %9, align 8, !tbaa !95
  %129 = load ptr, ptr %10, align 8, !tbaa !34
  %130 = getelementptr inbounds nuw %struct.exr_attr_preview_t, ptr %129, i32 0, i32 3
  %131 = load ptr, ptr %130, align 8, !tbaa !115
  %132 = ptrtoint ptr %131 to i64
  %133 = inttoptr i64 %132 to ptr
  %134 = getelementptr inbounds [2 x i32], ptr %15, i64 0, i64 0
  %135 = load i32, ptr %134, align 4, !tbaa !10
  %136 = getelementptr inbounds [2 x i32], ptr %15, i64 0, i64 1
  %137 = load i32, ptr %136, align 4, !tbaa !10
  %138 = mul i32 %135, %137
  %139 = mul i32 %138, 4
  %140 = zext i32 %139 to i64
  %141 = call i32 %127(ptr noundef %128, ptr noundef %133, i64 noundef %140)
  store i32 %141, ptr %16, align 4, !tbaa !10
  %142 = load i32, ptr %16, align 4, !tbaa !10
  %143 = icmp ne i32 %142, 0
  br i1 %143, label %144, label %156

144:                                              ; preds = %124
  %145 = load ptr, ptr %8, align 8, !tbaa !3
  %146 = load ptr, ptr %10, align 8, !tbaa !34
  %147 = call i32 @exr_attr_preview_destroy(ptr noundef %145, ptr noundef %146)
  %148 = load ptr, ptr %8, align 8, !tbaa !3
  %149 = getelementptr inbounds nuw %struct._priv_exr_context_t, ptr %148, i32 0, i32 14
  %150 = load ptr, ptr %149, align 8, !tbaa !48
  %151 = load ptr, ptr %8, align 8, !tbaa !3
  %152 = load i32, ptr %16, align 4, !tbaa !10
  %153 = load ptr, ptr %11, align 8, !tbaa !93
  %154 = load i32, ptr %13, align 4, !tbaa !10
  %155 = call i32 (ptr, i32, ptr, ...) %150(ptr noundef %151, i32 noundef %152, ptr noundef @.str.97, ptr noundef %153, i32 noundef %154)
  store i32 %155, ptr %7, align 4
  store i32 1, ptr %18, align 4
  br label %159

156:                                              ; preds = %124
  br label %157

157:                                              ; preds = %156, %121
  %158 = load i32, ptr %16, align 4, !tbaa !10
  store i32 %158, ptr %7, align 4
  store i32 1, ptr %18, align 4
  br label %159

159:                                              ; preds = %157, %144, %119, %97, %74, %45, %27
  call void @llvm.lifetime.end.p0(i64 8, ptr %17) #7
  call void @llvm.lifetime.end.p0(i64 4, ptr %16) #7
  call void @llvm.lifetime.end.p0(i64 8, ptr %15) #7
  call void @llvm.lifetime.end.p0(i64 8, ptr %14) #7
  %160 = load i32, ptr %7, align 4
  ret i32 %160
}