; Function Attrs: nounwind uwtable
define internal fastcc i32 @extract_attr_preview(ptr noundef %0, ptr noundef nonnull %1, ptr noundef %2, ptr noundef nonnull %3, ptr noundef nonnull %4, i32 noundef %5) unnamed_addr #0 {
  %7 = alloca [2 x i32], align 4
  call void @llvm.lifetime.start.p0(i64 8, ptr nonnull %7) #9
  %8 = getelementptr inbounds nuw i8, ptr %0, i64 152
  %9 = load i64, ptr %8, align 8, !tbaa !93
  %10 = tail call i32 @exr_attr_preview_destroy(ptr noundef %0, ptr noundef %2) #9
  %11 = icmp slt i32 %5, 8
  br i1 %11, label %12, label %16

12:                                               ; preds = %6
  %13 = getelementptr inbounds nuw i8, ptr %0, i64 72
  %14 = load ptr, ptr %13, align 8, !tbaa !40
  %15 = tail call i32 (ptr, i32, ptr, ...) %14(ptr noundef nonnull %0, i32 noundef 17, ptr noundef nonnull @.str.93, ptr noundef nonnull %3, i32 noundef %5, ptr noundef nonnull %4) #9
  br label %62

16:                                               ; preds = %6
  %17 = getelementptr inbounds nuw i8, ptr %1, i64 32
  %18 = load ptr, ptr %17, align 8, !tbaa !73
  %19 = call i32 %18(ptr noundef nonnull %1, ptr noundef nonnull %7, i64 noundef 8) #9
  %.not = icmp eq i32 %19, 0
  br i1 %.not, label %24, label %20

20:                                               ; preds = %16
  %21 = getelementptr inbounds nuw i8, ptr %0, i64 72
  %22 = load ptr, ptr %21, align 8, !tbaa !40
  %23 = call i32 (ptr, i32, ptr, ...) %22(ptr noundef nonnull %0, i32 noundef %19, ptr noundef nonnull @.str.94, ptr noundef nonnull %3) #9
  br label %62

24:                                               ; preds = %16
  %25 = load i32, ptr %7, align 4, !tbaa !28
  %26 = getelementptr inbounds nuw i8, ptr %7, i64 4
  %27 = load i32, ptr %26, align 4, !tbaa !28
  %28 = shl i32 %25, 2
  %29 = mul i32 %28, %27
  %30 = zext i32 %29 to i64
  %31 = zext nneg i32 %5 to i64
  %32 = add nuw nsw i64 %30, 8
  %.not57 = icmp eq i64 %32, %31
  br i1 %.not57, label %37, label %33

33:                                               ; preds = %24
  %34 = getelementptr inbounds nuw i8, ptr %0, i64 72
  %35 = load ptr, ptr %34, align 8, !tbaa !40
  %36 = call i32 (ptr, i32, ptr, ...) %35(ptr noundef nonnull %0, i32 noundef 14, ptr noundef nonnull @.str.95, ptr noundef nonnull %3, i32 noundef %5, ptr noundef nonnull %4, i32 noundef %25, i32 noundef %27) #9
  br label %62

37:                                               ; preds = %24
  %38 = icmp eq i32 %29, 0
  br i1 %38, label %41, label %39

39:                                               ; preds = %37
  %40 = icmp slt i64 %9, 1
  %.not58 = icmp ugt i64 %9, %30
  %or.cond = or i1 %40, %.not58
  br i1 %or.cond, label %45, label %41

41:                                               ; preds = %39, %37
  %42 = getelementptr inbounds nuw i8, ptr %0, i64 72
  %43 = load ptr, ptr %42, align 8, !tbaa !40
  %44 = call i32 (ptr, i32, ptr, ...) %43(ptr noundef nonnull %0, i32 noundef 17, ptr noundef nonnull @.str.96, ptr noundef nonnull %3, ptr noundef nonnull %4, i32 noundef %25, i32 noundef %27) #9
  br label %62

45:                                               ; preds = %39
  %46 = call i32 @exr_attr_preview_init(ptr noundef nonnull %0, ptr noundef %2, i32 noundef %25, i32 noundef %27) #9
  %.not59 = icmp eq i32 %46, 0
  br i1 %.not59, label %47, label %62

47:                                               ; preds = %45
  %48 = load ptr, ptr %17, align 8, !tbaa !73
  %49 = getelementptr inbounds nuw i8, ptr %2, i64 16
  %50 = load ptr, ptr %49, align 8, !tbaa !116
  %51 = load i32, ptr %7, align 4, !tbaa !28
  %52 = load i32, ptr %26, align 4, !tbaa !28
  %53 = shl i32 %51, 2
  %54 = mul i32 %53, %52
  %55 = zext i32 %54 to i64
  %56 = call i32 %48(ptr noundef nonnull %1, ptr noundef %50, i64 noundef %55) #9
  %.not60 = icmp eq i32 %56, 0
  br i1 %.not60, label %62, label %57

57:                                               ; preds = %47
  %58 = call i32 @exr_attr_preview_destroy(ptr noundef nonnull %0, ptr noundef nonnull %2) #9
  %59 = getelementptr inbounds nuw i8, ptr %0, i64 72
  %60 = load ptr, ptr %59, align 8, !tbaa !40
  %61 = call i32 (ptr, i32, ptr, ...) %60(ptr noundef nonnull %0, i32 noundef %56, ptr noundef nonnull @.str.97, ptr noundef nonnull %3, i32 noundef %5) #9
  br label %62

62:                                               ; preds = %47, %45, %57, %41, %33, %20, %12
  %.0 = phi i32 [ %15, %12 ], [ %23, %20 ], [ %36, %33 ], [ %44, %41 ], [ %61, %57 ], [ %46, %45 ], [ 0, %47 ]
  call void @llvm.lifetime.end.p0(i64 8, ptr nonnull %7) #9
  ret i32 %.0
}